target datalayout = "e-m:e-p270:32:32-p271:32:32-p272:64:64-i64:64-i128:128-f80:128-n8:16:32:64-S128"
target triple = "x86_64-pc-linux-gnu"

%struct.expert_field = type { i32, i32 }

@is_uplink = internal global i32 0, align 4
@ei_gsm_a_dtap_extraneous_data = internal global %struct.expert_field zeroinitializer, align 4
@ei_gsm_a_dtap_missing_mandatory_element = internal global %struct.expert_field zeroinitializer, align 4
@.str.824 = private unnamed_addr constant [1 x i8] zeroinitializer, align 1
@.str.1325 = private unnamed_addr constant [62 x i8] c"Missing Mandatory element %s%s, rest of dissection is suspect\00", align 1

; Function Attrs: null_pointer_is_valid sspstrong uwtable
define internal void @dtap_mm_abort(ptr noundef %0, ptr noundef %1, ptr noundef %2, i32 noundef %3, i32 noundef %4) #1 {
  %6 = alloca ptr, align 8
  %7 = alloca ptr, align 8
  %8 = alloca ptr, align 8
  %9 = alloca i32, align 4
  %10 = alloca i32, align 4
  %11 = alloca i32, align 4
  %12 = alloca i32, align 4
  %13 = alloca i32, align 4
  store ptr %0, ptr %6, align 8
  store ptr %1, ptr %7, align 8
  store ptr %2, ptr %8, align 8
  store i32 %3, ptr %9, align 4
  store i32 %4, ptr %10, align 4
  call void @llvm.lifetime.start.p0(i64 4, ptr %11) #7
  call void @llvm.lifetime.start.p0(i64 4, ptr %12) #7
  call void @llvm.lifetime.start.p0(i64 4, ptr %13) #7
  %14 = load i32, ptr %9, align 4
  store i32 %14, ptr %11, align 4
  %15 = load i32, ptr %10, align 4
  store i32 %15, ptr %13, align 4
  store i32 0, ptr @is_uplink, align 4
  %16 = load i32, ptr %13, align 4
  %17 = icmp sgt i32 %16, 0
  br i1 %17, label %18, label %33

18:                                               ; preds = %5
  %19 = load ptr, ptr %6, align 8
  %20 = load ptr, ptr %7, align 8
  %21 = load ptr, ptr %8, align 8
  %22 = load i32, ptr %11, align 4
  %23 = call zeroext i16 @elem_v(ptr noundef %19, ptr noundef %20, ptr noundef %21, i32 noundef 1, i32 noundef 9, i32 noundef %22, ptr noundef null)
  %24 = zext i16 %23 to i32
  store i32 %24, ptr %12, align 4
  %25 = icmp ugt i32 %24, 0
  br i1 %25, label %26, label %33

26:                                               ; preds = %18
  %27 = load i32, ptr %12, align 4
  %28 = load i32, ptr %11, align 4
  %29 = add i32 %28, %27
  store i32 %29, ptr %11, align 4
  %30 = load i32, ptr %12, align 4
  %31 = load i32, ptr %13, align 4
  %32 = sub i32 %31, %30
  store i32 %32, ptr %13, align 4
  br label %40

33:                                               ; preds = %18, %5
  %34 = load ptr, ptr %7, align 8
  %35 = load ptr, ptr %8, align 8
  %36 = load ptr, ptr %6, align 8
  %37 = load i32, ptr %11, align 4
  %38 = call ptr @get_gsm_a_msg_string(i32 noundef 1, i32 noundef 9)
  %39 = call ptr (ptr, ptr, ptr, ptr, i32, i32, ptr, ...) @proto_tree_add_expert_format(ptr noundef %34, ptr noundef %35, ptr noundef @ei_gsm_a_dtap_missing_mandatory_element, ptr noundef %36, i32 noundef %37, i32 noundef 0, ptr noundef @.str.1325, ptr noundef %38, ptr noundef @.str.824)
  br label %40

40:                                               ; preds = %33, %26
  %41 = load i32, ptr %13, align 4
  %42 = icmp ugt i32 %41, 0
  br i1 %42, label %43, label %55

43:                                               ; preds = %40
  %44 = load ptr, ptr %7, align 8
  %45 = load ptr, ptr %8, align 8
  %46 = load ptr, ptr %6, align 8
  %47 = load i32, ptr %11, align 4
  %48 = load i32, ptr %13, align 4
  %49 = sub i32 %48, 0
  %50 = call ptr @proto_tree_add_expert(ptr noundef %44, ptr noundef %45, ptr noundef @ei_gsm_a_dtap_extraneous_data, ptr noundef %46, i32 noundef %47, i32 noundef %49)
  %51 = load i32, ptr %13, align 4
  %52 = sub i32 %51, 0
  %53 = load i32, ptr %11, align 4
  %54 = add i32 %53, %52
  store i32 %54, ptr %11, align 4
  br label %55

55:                                               ; preds = %43, %40
  call void @llvm.lifetime.end.p0(i64 4, ptr %13) #7
  call void @llvm.lifetime.end.p0(i64 4, ptr %12) #7
  call void @llvm.lifetime.end.p0(i64 4, ptr %11) #7
  ret void
}